; Function Attrs: nounwind uwtable
define ptr @l_Array_mapMUnsafe_map___at_Lean_Meta_IndPredBelow_mkContext___spec__5(i64 noundef %0, i64 noundef %1, ptr noundef %2) local_unnamed_addr #0 {
  %.not40 = icmp ult i64 %1, %0
  br i1 %.not40, label %.lr.ph, label %._crit_edge

.lr.ph:                                           ; preds = %3, %48
  %.01942 = phi i64 [ %32, %48 ], [ %1, %3 ]
  %.02141 = phi ptr [ %.0.i.i29, %48 ], [ %2, %3 ]
  %4 = getelementptr inbounds nuw i8, ptr %.02141, i64 24
  %5 = getelementptr inbounds nuw [0 x ptr], ptr %4, i64 0, i64 %.01942
  %6 = load ptr, ptr %5, align 8, !tbaa !4
  %7 = ptrtoint ptr %6 to i64
  %8 = and i64 %7, 1
  %.not.i = icmp eq i64 %8, 0
  br i1 %.not.i, label %9, label %lean_array_uget.exit

9:                                                ; preds = %.lr.ph
  %.val.i.i = load i32, ptr %6, align 4, !tbaa !12
  %10 = icmp sgt i32 %.val.i.i, 0
  br i1 %10, label %11, label %13, !prof !11

11:                                               ; preds = %9
  %12 = add nuw i32 %.val.i.i, 1
  store i32 %12, ptr %6, align 4, !tbaa !12
  br label %lean_array_uget.exit

13:                                               ; preds = %9
  %.not.i.i = icmp eq i32 %.val.i.i, 0
  br i1 %.not.i.i, label %lean_array_uget.exit, label %14

14:                                               ; preds = %13
  tail call void @lean_inc_ref_cold(ptr noundef nonnull %6) #6
  br label %lean_array_uget.exit

lean_array_uget.exit:                             ; preds = %.lr.ph, %11, %13, %14
  %.val.i.i24 = load i32, ptr %.02141, align 4, !tbaa !12
  %15 = icmp eq i32 %.val.i.i24, 1
  br i1 %15, label %lean_ensure_exclusive_array.exit.i, label %16

16:                                               ; preds = %lean_array_uget.exit
  %17 = tail call ptr @lean_copy_expand_array(ptr noundef nonnull %.02141, i1 noundef zeroext false) #6
  br label %lean_ensure_exclusive_array.exit.i

lean_ensure_exclusive_array.exit.i:               ; preds = %16, %lean_array_uget.exit
  %.0.i.i = phi ptr [ %17, %16 ], [ %.02141, %lean_array_uget.exit ]
  %18 = getelementptr inbounds nuw i8, ptr %.0.i.i, i64 24
  %19 = getelementptr inbounds nuw ptr, ptr %18, i64 %.01942
  %20 = load ptr, ptr %19, align 8, !tbaa !4
  %21 = ptrtoint ptr %20 to i64
  %22 = and i64 %21, 1
  %.not.i25 = icmp eq i64 %22, 0
  br i1 %.not.i25, label %23, label %lean_array_uset.exit

23:                                               ; preds = %lean_ensure_exclusive_array.exit.i
  %24 = load i32, ptr %20, align 4, !tbaa !12
  %25 = icmp sgt i32 %24, 1
  br i1 %25, label %26, label %28, !prof !11

26:                                               ; preds = %23
  %27 = add nsw i32 %24, -1
  store i32 %27, ptr %20, align 4, !tbaa !12
  br label %lean_array_uset.exit

28:                                               ; preds = %23
  %.not.i.i26 = icmp eq i32 %24, 0
  br i1 %.not.i.i26, label %lean_array_uset.exit, label %29

29:                                               ; preds = %28
  tail call void @lean_dec_ref_cold(ptr noundef nonnull %20) #6
  br label %lean_array_uset.exit

lean_array_uset.exit:                             ; preds = %lean_ensure_exclusive_array.exit.i, %26, %28, %29
  store ptr inttoptr (i64 1 to ptr), ptr %19, align 8, !tbaa !4
  %30 = load ptr, ptr @l_Array_mapMUnsafe_map___at_Lean_Meta_IndPredBelow_mkContext___spec__5___closed__2, align 8, !tbaa !4
  %31 = tail call ptr @l_Lean_Name_append(ptr noundef %6, ptr noundef %30) #6
  %32 = add nuw i64 %.01942, 1
  %.val.i.i27 = load i32, ptr %.0.i.i, align 4, !tbaa !12
  %33 = icmp eq i32 %.val.i.i27, 1
  br i1 %33, label %lean_ensure_exclusive_array.exit.i28, label %34

34:                                               ; preds = %lean_array_uset.exit
  %35 = tail call ptr @lean_copy_expand_array(ptr noundef nonnull %.0.i.i, i1 noundef zeroext false) #6
  br label %lean_ensure_exclusive_array.exit.i28

lean_ensure_exclusive_array.exit.i28:             ; preds = %34, %lean_array_uset.exit
  %.0.i.i29 = phi ptr [ %35, %34 ], [ %.0.i.i, %lean_array_uset.exit ]
  %36 = getelementptr inbounds nuw i8, ptr %.0.i.i29, i64 24
  %37 = getelementptr inbounds nuw ptr, ptr %36, i64 %.01942
  %38 = load ptr, ptr %37, align 8, !tbaa !4
  %39 = ptrtoint ptr %38 to i64
  %40 = and i64 %39, 1
  %.not.i30 = icmp eq i64 %40, 0
  br i1 %.not.i30, label %41, label %48

41:                                               ; preds = %lean_ensure_exclusive_array.exit.i28
  %42 = load i32, ptr %38, align 4, !tbaa !12
  %43 = icmp sgt i32 %42, 1
  br i1 %43, label %44, label %46, !prof !11

44:                                               ; preds = %41
  %45 = add nsw i32 %42, -1
  store i32 %45, ptr %38, align 4, !tbaa !12
  br label %48

46:                                               ; preds = %41
  %.not.i.i31 = icmp eq i32 %42, 0
  br i1 %.not.i.i31, label %48, label %47

47:                                               ; preds = %46
  tail call void @lean_dec_ref_cold(ptr noundef nonnull %38) #6
  br label %48

48:                                               ; preds = %47, %46, %44, %lean_ensure_exclusive_array.exit.i28
  store ptr %31, ptr %37, align 8, !tbaa !4
  %exitcond.not = icmp eq i64 %32, %0
  br i1 %exitcond.not, label %._crit_edge, label %.lr.ph

._crit_edge:                                      ; preds = %48, %3
  %.021.lcssa = phi ptr [ %2, %3 ], [ %.0.i.i29, %48 ]
  ret ptr %.021.lcssa
}